target datalayout = "e-m:e-p270:32:32-p271:32:32-p272:64:64-i64:64-i128:128-f80:128-n8:16:32:64-S128"
target triple = "x86_64-pc-linux-gnu"

%struct.cli_ctx_tag = type { ptr, ptr, ptr, ptr, ptr, ptr, ptr, i64, ptr, i32, i32, ptr, i32, i32, ptr, [16 x i8], ptr, ptr, ptr, ptr, ptr, ptr, %struct.timeval, i8, i8 }
%struct.timeval = type { i64, i64 }
%struct.cl_scan_options = type { i32, i32, i32, i32, i32 }
%struct.hwp5_header = type { [32 x i8], i32, i32 }

@.str.3 = private unnamed_addr constant [11 x i8] c"Hwp5Header\00", align 1
@.str.4 = private unnamed_addr constant [41 x i8] c"HWP5.x: No memory for Hwp5Header object\0A\00", align 1
@.str.5 = private unnamed_addr constant [11 x i8] c"RawVersion\00", align 1
@.str.6 = private unnamed_addr constant [9 x i8] c"RawFlags\00", align 1
@.str.7 = private unnamed_addr constant [6 x i8] c"Flags\00", align 1
@.str.8 = private unnamed_addr constant [46 x i8] c"HWP5.x: No memory for Hwp5Header/Flags array\0A\00", align 1
@.str.9 = private unnamed_addr constant [16 x i8] c"HWP5_COMPRESSED\00", align 1
@.str.10 = private unnamed_addr constant [14 x i8] c"HWP5_PASSWORD\00", align 1
@.str.11 = private unnamed_addr constant [19 x i8] c"HWP5_DISTRIBUTABLE\00", align 1
@.str.12 = private unnamed_addr constant [12 x i8] c"HWP5_SCRIPT\00", align 1
@.str.13 = private unnamed_addr constant [9 x i8] c"HWP5_DRM\00", align 1
@.str.14 = private unnamed_addr constant [17 x i8] c"HWP5_XMLTEMPLATE\00", align 1
@.str.15 = private unnamed_addr constant [13 x i8] c"HWP5_HISTORY\00", align 1
@.str.16 = private unnamed_addr constant [17 x i8] c"HWP5_CERT_SIGNED\00", align 1
@.str.17 = private unnamed_addr constant [20 x i8] c"HWP5_CERT_ENCRYPTED\00", align 1
@.str.18 = private unnamed_addr constant [16 x i8] c"HWP5_CERT_EXTRA\00", align 1
@.str.19 = private unnamed_addr constant [14 x i8] c"HWP5_CERT_DRM\00", align 1
@.str.20 = private unnamed_addr constant [9 x i8] c"HWP5_CCL\00", align 1

; Function Attrs: nounwind uwtable
define i32 @cli_hwp5header(ptr noundef %0, ptr noundef %1) #0 {
  %3 = alloca i32, align 4
  %4 = alloca ptr, align 8
  %5 = alloca ptr, align 8
  %6 = alloca ptr, align 8
  %7 = alloca ptr, align 8
  %8 = alloca i32, align 4
  store ptr %0, ptr %4, align 8, !tbaa !3
  store ptr %1, ptr %5, align 8, !tbaa !31
  %9 = load ptr, ptr %4, align 8, !tbaa !3
  %10 = icmp ne ptr %9, null
  br i1 %10, label %11, label %14

11:                                               ; preds = %2
  %12 = load ptr, ptr %5, align 8, !tbaa !31
  %13 = icmp ne ptr %12, null
  br i1 %13, label %15, label %14

14:                                               ; preds = %11, %2
  store i32 2, ptr %3, align 4
  br label %160

15:                                               ; preds = %11
  %16 = load ptr, ptr %4, align 8, !tbaa !3
  %17 = getelementptr inbounds nuw %struct.cli_ctx_tag, ptr %16, i32 0, i32 8
  %18 = load ptr, ptr %17, align 8, !tbaa !33
  %19 = getelementptr inbounds nuw %struct.cl_scan_options, ptr %18, i32 0, i32 0
  %20 = load i32, ptr %19, align 4, !tbaa !34
  %21 = and i32 %20, 2
  %22 = icmp ne i32 %21, 0
  br i1 %22, label %23, label %159

23:                                               ; preds = %15
  call void @llvm.lifetime.start.p0(i64 8, ptr %6) #8
  call void @llvm.lifetime.start.p0(i64 8, ptr %7) #8
  %24 = load ptr, ptr %4, align 8, !tbaa !3
  %25 = getelementptr inbounds nuw %struct.cli_ctx_tag, ptr %24, i32 0, i32 21
  %26 = load ptr, ptr %25, align 8, !tbaa !36
  %27 = call ptr @cli_jsonobj(ptr noundef %26, ptr noundef @.str.3)
  store ptr %27, ptr %6, align 8, !tbaa !37
  %28 = load ptr, ptr %6, align 8, !tbaa !37
  %29 = icmp ne ptr %28, null
  br i1 %29, label %31, label %30

30:                                               ; preds = %23
  call void (ptr, ...) @cli_errmsg(ptr noundef @.str.4)
  store i32 20, ptr %3, align 4
  store i32 1, ptr %8, align 4
  br label %156

31:                                               ; preds = %23
  %32 = load ptr, ptr %6, align 8, !tbaa !37
  %33 = load ptr, ptr %5, align 8, !tbaa !31
  %34 = getelementptr inbounds nuw %struct.hwp5_header, ptr %33, i32 0, i32 1
  %35 = load i32, ptr %34, align 4, !tbaa !38
  %36 = call i32 @cli_jsonint(ptr noundef %32, ptr noundef @.str.5, i32 noundef %35)
  %37 = load ptr, ptr %6, align 8, !tbaa !37
  %38 = load ptr, ptr %5, align 8, !tbaa !31
  %39 = getelementptr inbounds nuw %struct.hwp5_header, ptr %38, i32 0, i32 2
  %40 = load i32, ptr %39, align 4, !tbaa !40
  %41 = call i32 @cli_jsonint(ptr noundef %37, ptr noundef @.str.6, i32 noundef %40)
  %42 = load ptr, ptr %6, align 8, !tbaa !37
  %43 = call ptr @cli_jsonarray(ptr noundef %42, ptr noundef @.str.7)
  store ptr %43, ptr %7, align 8, !tbaa !37
  %44 = load ptr, ptr %7, align 8, !tbaa !37
  %45 = icmp ne ptr %44, null
  br i1 %45, label %47, label %46

46:                                               ; preds = %31
  call void (ptr, ...) @cli_errmsg(ptr noundef @.str.8)
  store i32 20, ptr %3, align 4
  store i32 1, ptr %8, align 4
  br label %156

47:                                               ; preds = %31
  %48 = load ptr, ptr %5, align 8, !tbaa !31
  %49 = getelementptr inbounds nuw %struct.hwp5_header, ptr %48, i32 0, i32 2
  %50 = load i32, ptr %49, align 4, !tbaa !40
  %51 = and i32 %50, 1
  %52 = icmp ne i32 %51, 0
  br i1 %52, label %53, label %56

53:                                               ; preds = %47
  %54 = load ptr, ptr %7, align 8, !tbaa !37
  %55 = call i32 @cli_jsonstr(ptr noundef %54, ptr noundef null, ptr noundef @.str.9)
  br label %56

56:                                               ; preds = %53, %47
  %57 = load ptr, ptr %5, align 8, !tbaa !31
  %58 = getelementptr inbounds nuw %struct.hwp5_header, ptr %57, i32 0, i32 2
  %59 = load i32, ptr %58, align 4, !tbaa !40
  %60 = and i32 %59, 2
  %61 = icmp ne i32 %60, 0
  br i1 %61, label %62, label %65

62:                                               ; preds = %56
  %63 = load ptr, ptr %7, align 8, !tbaa !37
  %64 = call i32 @cli_jsonstr(ptr noundef %63, ptr noundef null, ptr noundef @.str.10)
  br label %65

65:                                               ; preds = %62, %56
  %66 = load ptr, ptr %5, align 8, !tbaa !31
  %67 = getelementptr inbounds nuw %struct.hwp5_header, ptr %66, i32 0, i32 2
  %68 = load i32, ptr %67, align 4, !tbaa !40
  %69 = and i32 %68, 4
  %70 = icmp ne i32 %69, 0
  br i1 %70, label %71, label %74

71:                                               ; preds = %65
  %72 = load ptr, ptr %7, align 8, !tbaa !37
  %73 = call i32 @cli_jsonstr(ptr noundef %72, ptr noundef null, ptr noundef @.str.11)
  br label %74

74:                                               ; preds = %71, %65
  %75 = load ptr, ptr %5, align 8, !tbaa !31
  %76 = getelementptr inbounds nuw %struct.hwp5_header, ptr %75, i32 0, i32 2
  %77 = load i32, ptr %76, align 4, !tbaa !40
  %78 = and i32 %77, 8
  %79 = icmp ne i32 %78, 0
  br i1 %79, label %80, label %83

80:                                               ; preds = %74
  %81 = load ptr, ptr %7, align 8, !tbaa !37
  %82 = call i32 @cli_jsonstr(ptr noundef %81, ptr noundef null, ptr noundef @.str.12)
  br label %83

83:                                               ; preds = %80, %74
  %84 = load ptr, ptr %5, align 8, !tbaa !31
  %85 = getelementptr inbounds nuw %struct.hwp5_header, ptr %84, i32 0, i32 2
  %86 = load i32, ptr %85, align 4, !tbaa !40
  %87 = and i32 %86, 16
  %88 = icmp ne i32 %87, 0
  br i1 %88, label %89, label %92

89:                                               ; preds = %83
  %90 = load ptr, ptr %7, align 8, !tbaa !37
  %91 = call i32 @cli_jsonstr(ptr noundef %90, ptr noundef null, ptr noundef @.str.13)
  br label %92

92:                                               ; preds = %89, %83
  %93 = load ptr, ptr %5, align 8, !tbaa !31
  %94 = getelementptr inbounds nuw %struct.hwp5_header, ptr %93, i32 0, i32 2
  %95 = load i32, ptr %94, align 4, !tbaa !40
  %96 = and i32 %95, 32
  %97 = icmp ne i32 %96, 0
  br i1 %97, label %98, label %101

98:                                               ; preds = %92
  %99 = load ptr, ptr %7, align 8, !tbaa !37
  %100 = call i32 @cli_jsonstr(ptr noundef %99, ptr noundef null, ptr noundef @.str.14)
  br label %101

101:                                              ; preds = %98, %92
  %102 = load ptr, ptr %5, align 8, !tbaa !31
  %103 = getelementptr inbounds nuw %struct.hwp5_header, ptr %102, i32 0, i32 2
  %104 = load i32, ptr %103, align 4, !tbaa !40
  %105 = and i32 %104, 64
  %106 = icmp ne i32 %105, 0
  br i1 %106, label %107, label %110

107:                                              ; preds = %101
  %108 = load ptr, ptr %7, align 8, !tbaa !37
  %109 = call i32 @cli_jsonstr(ptr noundef %108, ptr noundef null, ptr noundef @.str.15)
  br label %110

110:                                              ; preds = %107, %101
  %111 = load ptr, ptr %5, align 8, !tbaa !31
  %112 = getelementptr inbounds nuw %struct.hwp5_header, ptr %111, i32 0, i32 2
  %113 = load i32, ptr %112, align 4, !tbaa !40
  %114 = and i32 %113, 128
  %115 = icmp ne i32 %114, 0
  br i1 %115, label %116, label %119

116:                                              ; preds = %110
  %117 = load ptr, ptr %7, align 8, !tbaa !37
  %118 = call i32 @cli_jsonstr(ptr noundef %117, ptr noundef null, ptr noundef @.str.16)
  br label %119

119:                                              ; preds = %116, %110
  %120 = load ptr, ptr %5, align 8, !tbaa !31
  %121 = getelementptr inbounds nuw %struct.hwp5_header, ptr %120, i32 0, i32 2
  %122 = load i32, ptr %121, align 4, !tbaa !40
  %123 = and i32 %122, 256
  %124 = icmp ne i32 %123, 0
  br i1 %124, label %125, label %128

125:                                              ; preds = %119
  %126 = load ptr, ptr %7, align 8, !tbaa !37
  %127 = call i32 @cli_jsonstr(ptr noundef %126, ptr noundef null, ptr noundef @.str.17)
  br label %128

128:                                              ; preds = %125, %119
  %129 = load ptr, ptr %5, align 8, !tbaa !31
  %130 = getelementptr inbounds nuw %struct.hwp5_header, ptr %129, i32 0, i32 2
  %131 = load i32, ptr %130, align 4, !tbaa !40
  %132 = and i32 %131, 512
  %133 = icmp ne i32 %132, 0
  br i1 %133, label %134, label %137

134:                                              ; preds = %128
  %135 = load ptr, ptr %7, align 8, !tbaa !37
  %136 = call i32 @cli_jsonstr(ptr noundef %135, ptr noundef null, ptr noundef @.str.18)
  br label %137

137:                                              ; preds = %134, %128
  %138 = load ptr, ptr %5, align 8, !tbaa !31
  %139 = getelementptr inbounds nuw %struct.hwp5_header, ptr %138, i32 0, i32 2
  %140 = load i32, ptr %139, align 4, !tbaa !40
  %141 = and i32 %140, 1024
  %142 = icmp ne i32 %141, 0
  br i1 %142, label %143, label %146

143:                                              ; preds = %137
  %144 = load ptr, ptr %7, align 8, !tbaa !37
  %145 = call i32 @cli_jsonstr(ptr noundef %144, ptr noundef null, ptr noundef @.str.19)
  br label %146

146:                                              ; preds = %143, %137
  %147 = load ptr, ptr %5, align 8, !tbaa !31
  %148 = getelementptr inbounds nuw %struct.hwp5_header, ptr %147, i32 0, i32 2
  %149 = load i32, ptr %148, align 4, !tbaa !40
  %150 = and i32 %149, 2048
  %151 = icmp ne i32 %150, 0
  br i1 %151, label %152, label %155

152:                                              ; preds = %146
  %153 = load ptr, ptr %7, align 8, !tbaa !37
  %154 = call i32 @cli_jsonstr(ptr noundef %153, ptr noundef null, ptr noundef @.str.20)
  br label %155

155:                                              ; preds = %152, %146
  store i32 0, ptr %8, align 4
  br label %156

156:                                              ; preds = %155, %46, %30
  call void @llvm.lifetime.end.p0(i64 8, ptr %7) #8
  call void @llvm.lifetime.end.p0(i64 8, ptr %6) #8
  %157 = load i32, ptr %8, align 4
  switch i32 %157, label %162 [
    i32 0, label %158
    i32 1, label %160
  ]

158:                                              ; preds = %156
  br label %159

159:                                              ; preds = %158, %15
  store i32 0, ptr %3, align 4
  br label %160

160:                                              ; preds = %159, %156, %14
  %161 = load i32, ptr %3, align 4
  ret i32 %161

162:                                              ; preds = %156
  unreachable
}