; Function Attrs: nounwind uwtable
define range(i32 0, 21) i32 @cli_hwp5header(ptr noundef readonly %0, ptr noundef readonly %1) local_unnamed_addr #0 {
  %3 = icmp ne ptr %0, null
  %4 = icmp ne ptr %1, null
  %or.cond = and i1 %3, %4
  br i1 %or.cond, label %5, label %.thread

5:                                                ; preds = %2
  %6 = getelementptr inbounds nuw i8, ptr %0, i64 64
  %7 = load ptr, ptr %6, align 8, !tbaa !27
  %8 = load i32, ptr %7, align 4, !tbaa !28
  %9 = and i32 %8, 2
  %.not = icmp eq i32 %9, 0
  br i1 %.not, label %.thread, label %10

10:                                               ; preds = %5
  %11 = getelementptr inbounds nuw i8, ptr %0, i64 160
  %12 = load ptr, ptr %11, align 8, !tbaa !30
  %13 = tail call ptr @cli_jsonobj(ptr noundef %12, ptr noundef nonnull @.str.3) #10
  %.not42 = icmp eq ptr %13, null
  br i1 %.not42, label %14, label %15

14:                                               ; preds = %10
  tail call void (ptr, ...) @cli_errmsg(ptr noundef nonnull @.str.4) #10
  br label %.thread

15:                                               ; preds = %10
  %16 = getelementptr inbounds nuw i8, ptr %1, i64 32
  %17 = load i32, ptr %16, align 4, !tbaa !31
  %18 = tail call i32 @cli_jsonint(ptr noundef nonnull %13, ptr noundef nonnull @.str.5, i32 noundef %17) #10
  %19 = getelementptr inbounds nuw i8, ptr %1, i64 36
  %20 = load i32, ptr %19, align 4, !tbaa !33
  %21 = tail call i32 @cli_jsonint(ptr noundef nonnull %13, ptr noundef nonnull @.str.6, i32 noundef %20) #10
  %22 = tail call ptr @cli_jsonarray(ptr noundef nonnull %13, ptr noundef nonnull @.str.7) #10
  %.not43 = icmp eq ptr %22, null
  br i1 %.not43, label %23, label %24

23:                                               ; preds = %15
  tail call void (ptr, ...) @cli_errmsg(ptr noundef nonnull @.str.8) #10
  br label %.thread

24:                                               ; preds = %15
  %25 = load i32, ptr %19, align 4, !tbaa !33
  %26 = and i32 %25, 1
  %.not44 = icmp eq i32 %26, 0
  br i1 %.not44, label %29, label %27

27:                                               ; preds = %24
  %28 = tail call i32 @cli_jsonstr(ptr noundef nonnull %22, ptr noundef null, ptr noundef nonnull @.str.9) #10
  %.pre = load i32, ptr %19, align 4, !tbaa !33
  br label %29

29:                                               ; preds = %27, %24
  %30 = phi i32 [ %.pre, %27 ], [ %25, %24 ]
  %31 = and i32 %30, 2
  %.not45 = icmp eq i32 %31, 0
  br i1 %.not45, label %34, label %32

32:                                               ; preds = %29
  %33 = tail call i32 @cli_jsonstr(ptr noundef nonnull %22, ptr noundef null, ptr noundef nonnull @.str.10) #10
  %.pre58 = load i32, ptr %19, align 4, !tbaa !33
  br label %34

34:                                               ; preds = %32, %29
  %35 = phi i32 [ %.pre58, %32 ], [ %30, %29 ]
  %36 = and i32 %35, 4
  %.not46 = icmp eq i32 %36, 0
  br i1 %.not46, label %39, label %37

37:                                               ; preds = %34
  %38 = tail call i32 @cli_jsonstr(ptr noundef nonnull %22, ptr noundef null, ptr noundef nonnull @.str.11) #10
  %.pre59 = load i32, ptr %19, align 4, !tbaa !33
  br label %39

39:                                               ; preds = %37, %34
  %40 = phi i32 [ %.pre59, %37 ], [ %35, %34 ]
  %41 = and i32 %40, 8
  %.not47 = icmp eq i32 %41, 0
  br i1 %.not47, label %44, label %42

42:                                               ; preds = %39
  %43 = tail call i32 @cli_jsonstr(ptr noundef nonnull %22, ptr noundef null, ptr noundef nonnull @.str.12) #10
  %.pre60 = load i32, ptr %19, align 4, !tbaa !33
  br label %44

44:                                               ; preds = %42, %39
  %45 = phi i32 [ %.pre60, %42 ], [ %40, %39 ]
  %46 = and i32 %45, 16
  %.not48 = icmp eq i32 %46, 0
  br i1 %.not48, label %49, label %47

47:                                               ; preds = %44
  %48 = tail call i32 @cli_jsonstr(ptr noundef nonnull %22, ptr noundef null, ptr noundef nonnull @.str.13) #10
  %.pre61 = load i32, ptr %19, align 4, !tbaa !33
  br label %49

49:                                               ; preds = %47, %44
  %50 = phi i32 [ %.pre61, %47 ], [ %45, %44 ]
  %51 = and i32 %50, 32
  %.not49 = icmp eq i32 %51, 0
  br i1 %.not49, label %54, label %52

52:                                               ; preds = %49
  %53 = tail call i32 @cli_jsonstr(ptr noundef nonnull %22, ptr noundef null, ptr noundef nonnull @.str.14) #10
  %.pre62 = load i32, ptr %19, align 4, !tbaa !33
  br label %54

54:                                               ; preds = %52, %49
  %55 = phi i32 [ %.pre62, %52 ], [ %50, %49 ]
  %56 = and i32 %55, 64
  %.not50 = icmp eq i32 %56, 0
  br i1 %.not50, label %59, label %57

57:                                               ; preds = %54
  %58 = tail call i32 @cli_jsonstr(ptr noundef nonnull %22, ptr noundef null, ptr noundef nonnull @.str.15) #10
  %.pre63 = load i32, ptr %19, align 4, !tbaa !33
  br label %59

59:                                               ; preds = %57, %54
  %60 = phi i32 [ %.pre63, %57 ], [ %55, %54 ]
  %61 = and i32 %60, 128
  %.not51 = icmp eq i32 %61, 0
  br i1 %.not51, label %64, label %62

62:                                               ; preds = %59
  %63 = tail call i32 @cli_jsonstr(ptr noundef nonnull %22, ptr noundef null, ptr noundef nonnull @.str.16) #10
  %.pre64 = load i32, ptr %19, align 4, !tbaa !33
  br label %64

64:                                               ; preds = %62, %59
  %65 = phi i32 [ %.pre64, %62 ], [ %60, %59 ]
  %66 = and i32 %65, 256
  %.not52 = icmp eq i32 %66, 0
  br i1 %.not52, label %69, label %67

67:                                               ; preds = %64
  %68 = tail call i32 @cli_jsonstr(ptr noundef nonnull %22, ptr noundef null, ptr noundef nonnull @.str.17) #10
  %.pre65 = load i32, ptr %19, align 4, !tbaa !33
  br label %69

69:                                               ; preds = %67, %64
  %70 = phi i32 [ %.pre65, %67 ], [ %65, %64 ]
  %71 = and i32 %70, 512
  %.not53 = icmp eq i32 %71, 0
  br i1 %.not53, label %74, label %72

72:                                               ; preds = %69
  %73 = tail call i32 @cli_jsonstr(ptr noundef nonnull %22, ptr noundef null, ptr noundef nonnull @.str.18) #10
  %.pre66 = load i32, ptr %19, align 4, !tbaa !33
  br label %74

74:                                               ; preds = %72, %69
  %75 = phi i32 [ %.pre66, %72 ], [ %70, %69 ]
  %76 = and i32 %75, 1024
  %.not54 = icmp eq i32 %76, 0
  br i1 %.not54, label %79, label %77

77:                                               ; preds = %74
  %78 = tail call i32 @cli_jsonstr(ptr noundef nonnull %22, ptr noundef null, ptr noundef nonnull @.str.19) #10
  %.pre67 = load i32, ptr %19, align 4, !tbaa !33
  br label %79

79:                                               ; preds = %77, %74
  %80 = phi i32 [ %.pre67, %77 ], [ %75, %74 ]
  %81 = and i32 %80, 2048
  %.not55 = icmp eq i32 %81, 0
  br i1 %.not55, label %.thread, label %82

82:                                               ; preds = %79
  %83 = tail call i32 @cli_jsonstr(ptr noundef nonnull %22, ptr noundef null, ptr noundef nonnull @.str.20) #10
  br label %.thread

.thread:                                          ; preds = %79, %82, %5, %14, %23, %2
  %.037 = phi i32 [ 2, %2 ], [ 20, %23 ], [ 20, %14 ], [ 0, %5 ], [ 0, %82 ], [ 0, %79 ]
  ret i32 %.037
}